(dp1
S'sg_version_data'
p2
(dp3
S'code'
p4
S'v1.4.2'
p5
sS'description'
p6
S"Fixes an issue so that when the context changes due to the engine's file automatic context switching, the path and profiles get correctly updated on the SG writenodes in the newly opened script."
p7
sS'tags'
p8
(lp9
sS'sg_payload'
p10
(dp11
S'name'
p12
S'tk-nuke-writenode_v1.4.2.zip'
p13
sS'url'
p14
S'https://s3-proxy.shotgunstudio.com/d18c13bf0e59a9a82f18be518a1b6b508bcbd774/d3084781ee637a8081aae4c9bf07526944e15aad/tk-nuke-writenode_v1.4.2.zip?response-content-disposition=filename%3D%22tk-nuke-writenode_v1.4.2.zip%22&x-amz-meta-user-id=42&x-amz-meta-user-type=ApiUser&X-Amz-Algorithm=AWS4-HMAC-SHA256&X-Amz-Credential=ASIAYJG6Z4JI6J4CV24R%2F20210125%2Fus-west-2%2Fs3%2Faws4_request&X-Amz-Date=20210125T133511Z&X-Amz-Expires=900&X-Amz-SignedHeaders=host&X-Amz-Security-Token=FwoGZXIvYXdzED4aDLApl0IkwtDvPE10jyKvATJitXBicBvgGIECkTXIp%2Bs%2FkxRud4oDGjEejSEj4%2FFf4Lw%2BXPLi3VCCIgomauEoNEoeGqjHVYisd4mtemcnn2FqA6jj0NFKCKLgiyM0QL9dTdatEEeLunGKX4ZpCpYeBg9F8U%2FewdV2cPeyxTj338PTY7v8LHGTfhrD%2B9VDBqIxLBbQImoAthuM3w7rvI1ZBiEdHjkcCyaN6WOA1dMCwCZD4TWwfLsmr5rZBqPIPeQo0oG7gAYyLeMnLj2rCZi6ua7AoHUrw4ti1Jk2Y6jOor%2BrT9YbKpshw4RM3GEe9qfzhtsiJA%3D%3D&X-Amz-Signature=6aff8cc8601cff419c45fe19e8ce0d2acad2b44657af2c3c6d265da8ecadb48a'
p15
sS'content_type'
p16
S'application/zip'
p17
sS'type'
p18
S'Attachment'
p19
sS'id'
p20
I21005
sS'link_type'
p21
S'upload'
p22
ssS'sg_status_list'
p23
S'prod'
p24
sS'sg_detailed_release_notes'
p25
(dp26
S'name'
p27
S'v1.4.2'
p28
sS'url'
p29
S'https://support.shotgunsoftware.com/hc/en-us/articles/219032848#v1.4.2'
p30
sS'content_type'
p31
NsS'type'
p32
S'Attachment'
p33
sS'id'
p34
I21002
sS'link_type'
p35
S'web'
p36
ssS'sg_documentation'
p37
(dp38
S'name'
p39
S'Documentation'
p40
sS'url'
p41
S'https://support.shotgunsoftware.com/hc/en-us/articles/219032848'
p42
sS'content_type'
p43
NsS'type'
p44
S'Attachment'
p45
sS'id'
p46
I21004
sS'link_type'
p47
S'web'
p48
ssS'type'
p49
S'CustomNonProjectEntity05'
p50
sS'id'
p51
I2908
ssS'sg_bundle_data'
p52
(dp53
S'sg_status_list'
p54
S'depl'
p55
sS'type'
p56
S'CustomNonProjectEntity02'
p57
sS'id'
p58
I53
sS'sg_system_name'
p59
S'tk-nuke-writenode'
p60
sS'sg_deprecation_message'
p61
Nss.