(dp0
Vsg_bundle_data
p1
(dp2
Vtype
p3
VCustomNonProjectEntity07
p4
sVid
p5
I81
sVsg_system_name
p6
Vtk-config-default2
p7
sVsg_status_list
p8
Vhidden
p9
sVsg_deprecation_message
p10
NssVsg_version_data
p11
(dp12
Vtype
p13
VCustomNonProjectEntity08
p14
sVid
p15
I2424
sVcode
p16
Vv1.4.5
p17
sVsg_status_list
p18
Vprod
p19
sVdescription
p20
V[No wiki release notes found]
p21
sVtags
p22
(lp23
sVsg_detailed_release_notes
p24
(dp25
Vurl
p26
Vhttps://community.shotgridsoftware.com/t/shotgrid-integration-1-4-release-notes/12589/last
p27
sVname
p28
Vv1.4.5
p29
sVcontent_type
p30
NsVlink_type
p31
Vweb
p32
sg13
VAttachment
p33
sg15
I27876
ssVsg_documentation
p34
NsVsg_payload
p35
(dp36
g26
Vhttps://s3-proxy.shotgunstudio.com/d18c13bf0e59a9a82f18be518a1b6b508bcbd774/2b75ee6d7352b6882f7f71c584e1099505345268/tk-config-default2_v1.4.5.zip?response-content-disposition=filename%3D%22tk-config-default2_v1.4.5.zip%22&x-amz-meta-user-id=42&x-amz-meta-user-type=ApiUser&X-Amz-Algorithm=AWS4-HMAC-SHA256&X-Amz-Credential=ASIAYJG6Z4JISBXMDDDZ%2F20220907%2Fus-west-2%2Fs3%2Faws4_request&X-Amz-Date=20220907T102449Z&X-Amz-SignedHeaders=host&X-Amz-Expires=900&X-Amz-Security-Token=IQoJb3JpZ2luX2VjEHoaCXVzLWVhc3QtMSJIMEYCIQC3NrUQMiLMr4%2BMJD1DRVdFDdvDEYX%2BSJ9wB4j%2BYF4dPAIhAIgd%2BXWq5uCjsO2LakPcPVWE7TEVgzr%2BaFrtCuQqSvQEKpgCCBMQABoMNTY5NTUwNDMwODAxIgyBTIqiCbYcKGSk7Z4q9QEsxT5knY8kIDVeWufJhnWeoQuYWjJrb8VEZlLtSljAGdQfz%2F7oI7qTuyLoiFG8z3sH6xrHuRH1VmP7LrO4c6MSar4V2pzmmqCwl5vrnqexO%2FzFYiJfAK4yZK0%2BAU4pNC4cc8e5YVNd114vLE%2FHH5wanhyX1NE2NpUP0HQub383i2ZGLh0mcCnGOD8MNreCbDXdTO3cYOD1y54X7tUsAYSGHldrSewaP8AhOXqQxgYDQf3He8j%2Fy7BloyU7VHMe9KoQYAZ%2FGv%2FrFZvkeASPmAj19fPVB2U8aNEqcsUC8%2BETdCwckWpHJxBwzmsDGhkbtHkySYWsSDC90eGYBjqcAS1nsnrg2qsvHxc2C%2BEu9iqfXnHWCsPMrIK4VTsWYuUsF3jwZKp%2FUGoAIQCid8vln47ST4I6nu%2FSM7sfx63EiRDQXvmQOwNh3MlTJUuO0yy8IcKxZeYl6sBRWuh2fkglxNe0z700gzEXWSe6CgLqYfeqGlacHiNTpdsGANyxsTrbF%2B%2BcT8RLhnRS%2FVVnJHDxnHLo0K1jENGilZG6cQ%3D%3D&X-Amz-Signature=d6a1622c209d34479f41e7a47e59bbad4e3de942cb30de099ad92596aa1e0e7c
p37
sg28
Vtk-config-default2_v1.4.5.zip
p38
sg30
Vapplication/zip
p39
sg31
Vupload
p40
sg13
VAttachment
p41
sg15
I27837
sss.