(dp1
S'sg_version_data'
p2
(dp3
S'code'
p4
S'v0.5.3'
p5
sS'description'
p6
S'Bug fix for Sg write node parenting on exported scripts.'
p7
sS'tags'
p8
(lp9
sS'sg_payload'
p10
(dp11
S'name'
p12
S'tk-hiero-export_v0.5.3.zip'
p13
sS'url'
p14
S'https://s3-proxy.shotgunstudio.com/d18c13bf0e59a9a82f18be518a1b6b508bcbd774/00372a4f350ec60f2a0618b2011cf63aa2bc07eb/tk-hiero-export_v0.5.3.zip?response-content-disposition=filename%3D%22tk-hiero-export_v0.5.3.zip%22&x-amz-meta-user-id=42&x-amz-meta-user-type=ApiUser&X-Amz-Algorithm=AWS4-HMAC-SHA256&X-Amz-Credential=ASIAYJG6Z4JI6J4CV24R%2F20210125%2Fus-west-2%2Fs3%2Faws4_request&X-Amz-Date=20210125T133544Z&X-Amz-Expires=900&X-Amz-SignedHeaders=host&X-Amz-Security-Token=FwoGZXIvYXdzED4aDLApl0IkwtDvPE10jyKvATJitXBicBvgGIECkTXIp%2Bs%2FkxRud4oDGjEejSEj4%2FFf4Lw%2BXPLi3VCCIgomauEoNEoeGqjHVYisd4mtemcnn2FqA6jj0NFKCKLgiyM0QL9dTdatEEeLunGKX4ZpCpYeBg9F8U%2FewdV2cPeyxTj338PTY7v8LHGTfhrD%2B9VDBqIxLBbQImoAthuM3w7rvI1ZBiEdHjkcCyaN6WOA1dMCwCZD4TWwfLsmr5rZBqPIPeQo0oG7gAYyLeMnLj2rCZi6ua7AoHUrw4ti1Jk2Y6jOor%2BrT9YbKpshw4RM3GEe9qfzhtsiJA%3D%3D&X-Amz-Signature=a101f4f78d3db422580f9647a806b43c066a480daee3cf3d2895e2e8b2fe6172'
p15
sS'content_type'
p16
S'application/zip'
p17
sS'type'
p18
S'Attachment'
p19
sS'id'
p20
I21039
sS'link_type'
p21
S'upload'
p22
ssS'sg_status_list'
p23
S'prod'
p24
sS'sg_detailed_release_notes'
p25
(dp26
S'name'
p27
S'v0.5.3'
p28
sS'url'
p29
S'https://support.shotgunsoftware.com/hc/en-us/articles/219039968#v0.5.3'
p30
sS'content_type'
p31
NsS'type'
p32
S'Attachment'
p33
sS'id'
p34
I21036
sS'link_type'
p35
S'web'
p36
ssS'sg_documentation'
p37
(dp38
S'name'
p39
S'Documentation'
p40
sS'url'
p41
S'https://support.shotgunsoftware.com/hc/en-us/articles/219039968'
p42
sS'content_type'
p43
NsS'type'
p44
S'Attachment'
p45
sS'id'
p46
I21038
sS'link_type'
p47
S'web'
p48
ssS'type'
p49
S'CustomNonProjectEntity05'
p50
sS'id'
p51
I2911
ssS'sg_bundle_data'
p52
(dp53
S'sg_status_list'
p54
S'depl'
p55
sS'type'
p56
S'CustomNonProjectEntity02'
p57
sS'id'
p58
I59
sS'sg_system_name'
p59
S'tk-hiero-export'
p60
sS'sg_deprecation_message'
p61
Nss.